; Function Attrs: null_pointer_is_valid sspstrong uwtable
define internal noundef i32 @decode_dataitem_mdrr(ptr noundef %0, ptr readnone captures(none) %1, ptr noundef %2, ptr readnone captures(none) %3) #0 {
  %5 = alloca i64, align 8
  %6 = tail call ptr @proto_tree_get_parent(ptr noundef %2)
  call void @llvm.lifetime.start.p0(i64 8, ptr nonnull %5) #5
  %7 = load i32, ptr @hf_dlep_dataitem_mdrr, align 4
  %8 = call ptr @proto_tree_add_item_ret_uint64(ptr noundef %2, i32 noundef %7, ptr noundef %0, i32 noundef 0, i32 noundef 8, i32 noundef 0, ptr noundef nonnull %5)
  %9 = load i64, ptr %5, align 8
  call void (ptr, ptr, ...) @proto_item_append_text(ptr noundef %6, ptr noundef nonnull @.str.216, i64 noundef %9)
  call void @llvm.lifetime.end.p0(i64 8, ptr nonnull %5) #5
  ret i32 8
}